target datalayout = "e-m:e-p270:32:32-p271:32:32-p272:64:64-i64:64-i128:128-f80:128-n8:16:32:64-S128"
target triple = "x86_64-unknown-linux-gnu"

%"class.icu_75::TimeZoneRule" = type { %"class.icu_75::UObject", %"class.icu_75::UnicodeString", i32, i32 }
%"class.icu_75::UObject" = type { ptr }
%"class.icu_75::UnicodeString" = type { %"class.icu_75::Replaceable", %"union.icu_75::UnicodeString::StackBufferOrFields" }
%"class.icu_75::Replaceable" = type { %"class.icu_75::UObject" }
%"union.icu_75::UnicodeString::StackBufferOrFields" = type { %struct.anon.0, [32 x i8] }
%struct.anon.0 = type { i16, i32, i32, ptr }
%"class.icu_75::TimeArrayTimeZoneRule" = type { %"class.icu_75::TimeZoneRule", i32, i32, ptr, [32 x double] }

; Function Attrs: mustprogress nounwind uwtable
define internal noundef signext i8 @_ZL9U_FAILURE10UErrorCode(i32 noundef %code) #2 {
entry:
  %code.addr = alloca i32, align 4
  store i32 %code, ptr %code.addr, align 4
  %0 = load i32, ptr %code.addr, align 4
  %cmp = icmp sgt i32 %0, 0
  %conv = zext i1 %cmp to i8
  ret i8 %conv
}

; Function Attrs: mustprogress uwtable
define noundef signext i8 @_ZN6icu_7521TimeArrayTimeZoneRule14initStartTimesEPKdiR10UErrorCode(ptr noundef nonnull align 8 dereferenceable(352) %this, ptr noundef %source, i32 noundef %size, ptr noundef nonnull align 4 dereferenceable(4) %status) #0 align 2 {
entry:
  %retval = alloca i8, align 1
  %this.addr = alloca ptr, align 8
  %source.addr = alloca ptr, align 8
  %size.addr = alloca i32, align 4
  %status.addr = alloca ptr, align 8
  store ptr %this, ptr %this.addr, align 8
  store ptr %source, ptr %source.addr, align 8
  store i32 %size, ptr %size.addr, align 4
  store ptr %status, ptr %status.addr, align 8
  %this1 = load ptr, ptr %this.addr, align 8
  %fStartTimes = getelementptr inbounds %"class.icu_75::TimeArrayTimeZoneRule", ptr %this1, i32 0, i32 3
  %0 = load ptr, ptr %fStartTimes, align 8
  %cmp = icmp ne ptr %0, null
  br i1 %cmp, label %land.lhs.true, label %if.end

land.lhs.true:                                    ; preds = %entry
  %fStartTimes2 = getelementptr inbounds %"class.icu_75::TimeArrayTimeZoneRule", ptr %this1, i32 0, i32 3
  %1 = load ptr, ptr %fStartTimes2, align 8
  %fLocalStartTimes = getelementptr inbounds %"class.icu_75::TimeArrayTimeZoneRule", ptr %this1, i32 0, i32 4
  %arraydecay = getelementptr inbounds [32 x double], ptr %fLocalStartTimes, i64 0, i64 0
  %cmp3 = icmp ne ptr %1, %arraydecay
  br i1 %cmp3, label %if.then, label %if.end

if.then:                                          ; preds = %land.lhs.true
  %fStartTimes4 = getelementptr inbounds %"class.icu_75::TimeArrayTimeZoneRule", ptr %this1, i32 0, i32 3
  %2 = load ptr, ptr %fStartTimes4, align 8
  call void @uprv_free_75(ptr noundef %2)
  br label %if.end

if.end:                                           ; preds = %if.then, %land.lhs.true, %entry
  %3 = load i32, ptr %size.addr, align 4
  %cmp5 = icmp sgt i32 %3, 32
  br i1 %cmp5, label %if.then6, label %if.else

if.then6:                                         ; preds = %if.end
  %4 = load i32, ptr %size.addr, align 4
  %conv = sext i32 %4 to i64
  %mul = mul i64 8, %conv
  %call = call noalias ptr @uprv_malloc_75(i64 noundef %mul) #13
  %fStartTimes7 = getelementptr inbounds %"class.icu_75::TimeArrayTimeZoneRule", ptr %this1, i32 0, i32 3
  store ptr %call, ptr %fStartTimes7, align 8
  %fStartTimes8 = getelementptr inbounds %"class.icu_75::TimeArrayTimeZoneRule", ptr %this1, i32 0, i32 3
  %5 = load ptr, ptr %fStartTimes8, align 8
  %cmp9 = icmp eq ptr %5, null
  br i1 %cmp9, label %if.then10, label %if.end11

if.then10:                                        ; preds = %if.then6
  %6 = load ptr, ptr %status.addr, align 8
  store i32 7, ptr %6, align 4
  %fNumStartTimes = getelementptr inbounds %"class.icu_75::TimeArrayTimeZoneRule", ptr %this1, i32 0, i32 2
  store i32 0, ptr %fNumStartTimes, align 4
  store i8 0, ptr %retval, align 1
  br label %return

if.end11:                                         ; preds = %if.then6
  br label %if.end15

if.else:                                          ; preds = %if.end
  %fLocalStartTimes12 = getelementptr inbounds %"class.icu_75::TimeArrayTimeZoneRule", ptr %this1, i32 0, i32 4
  %arraydecay13 = getelementptr inbounds [32 x double], ptr %fLocalStartTimes12, i64 0, i64 0
  %fStartTimes14 = getelementptr inbounds %"class.icu_75::TimeArrayTimeZoneRule", ptr %this1, i32 0, i32 3
  store ptr %arraydecay13, ptr %fStartTimes14, align 8
  br label %if.end15

if.end15:                                         ; preds = %if.else, %if.end11
  br label %do.body

do.body:                                          ; preds = %if.end15
  %fStartTimes16 = getelementptr inbounds %"class.icu_75::TimeArrayTimeZoneRule", ptr %this1, i32 0, i32 3
  %7 = load ptr, ptr %fStartTimes16, align 8
  %8 = load ptr, ptr %source.addr, align 8
  %9 = load i32, ptr %size.addr, align 4
  %conv17 = sext i32 %9 to i64
  %mul18 = mul i64 8, %conv17
  call void @llvm.memcpy.p0.p0.i64(ptr align 8 %7, ptr align 8 %8, i64 %mul18, i1 false)
  br label %do.end

do.end:                                           ; preds = %do.body
  %10 = load i32, ptr %size.addr, align 4
  %fNumStartTimes19 = getelementptr inbounds %"class.icu_75::TimeArrayTimeZoneRule", ptr %this1, i32 0, i32 2
  store i32 %10, ptr %fNumStartTimes19, align 4
  %fStartTimes20 = getelementptr inbounds %"class.icu_75::TimeArrayTimeZoneRule", ptr %this1, i32 0, i32 3
  %11 = load ptr, ptr %fStartTimes20, align 8
  %fNumStartTimes21 = getelementptr inbounds %"class.icu_75::TimeArrayTimeZoneRule", ptr %this1, i32 0, i32 2
  %12 = load i32, ptr %fNumStartTimes21, align 4
  %13 = load ptr, ptr %status.addr, align 8
  call void @uprv_sortArray_75(ptr noundef %11, i32 noundef %12, i32 noundef 8, ptr noundef @_ZL12compareDatesPKvS0_S0_, ptr noundef null, i8 noundef signext 1, ptr noundef %13)
  %14 = load ptr, ptr %status.addr, align 8
  %15 = load i32, ptr %14, align 4
  %call22 = call noundef signext i8 @_ZL9U_FAILURE10UErrorCode(i32 noundef %15)
  %tobool = icmp ne i8 %call22, 0
  br i1 %tobool, label %if.then23, label %if.end35

if.then23:                                        ; preds = %do.end
  %fStartTimes24 = getelementptr inbounds %"class.icu_75::TimeArrayTimeZoneRule", ptr %this1, i32 0, i32 3
  %16 = load ptr, ptr %fStartTimes24, align 8
  %cmp25 = icmp ne ptr %16, null
  br i1 %cmp25, label %land.lhs.true26, label %if.end33

land.lhs.true26:                                  ; preds = %if.then23
  %fStartTimes27 = getelementptr inbounds %"class.icu_75::TimeArrayTimeZoneRule", ptr %this1, i32 0, i32 3
  %17 = load ptr, ptr %fStartTimes27, align 8
  %fLocalStartTimes28 = getelementptr inbounds %"class.icu_75::TimeArrayTimeZoneRule", ptr %this1, i32 0, i32 4
  %arraydecay29 = getelementptr inbounds [32 x double], ptr %fLocalStartTimes28, i64 0, i64 0
  %cmp30 = icmp ne ptr %17, %arraydecay29
  br i1 %cmp30, label %if.then31, label %if.end33

if.then31:                                        ; preds = %land.lhs.true26
  %fStartTimes32 = getelementptr inbounds %"class.icu_75::TimeArrayTimeZoneRule", ptr %this1, i32 0, i32 3
  %18 = load ptr, ptr %fStartTimes32, align 8
  call void @uprv_free_75(ptr noundef %18)
  br label %if.end33

if.end33:                                         ; preds = %if.then31, %land.lhs.true26, %if.then23
  %fNumStartTimes34 = getelementptr inbounds %"class.icu_75::TimeArrayTimeZoneRule", ptr %this1, i32 0, i32 2
  store i32 0, ptr %fNumStartTimes34, align 4
  store i8 0, ptr %retval, align 1
  br label %return

if.end35:                                         ; preds = %do.end
  store i8 1, ptr %retval, align 1
  br label %return

return:                                           ; preds = %if.end35, %if.end33, %if.then10
  %19 = load i8, ptr %retval, align 1
  ret i8 %19
}