; Function Attrs: mustprogress uwtable
define noundef signext i8 @_ZN6icu_7521TimeArrayTimeZoneRule14initStartTimesEPKdiR10UErrorCode(ptr noundef nonnull align 8 dereferenceable(352) %this, ptr nocapture noundef readonly %source, i32 noundef %size, ptr noundef nonnull align 4 dereferenceable(4) %status) local_unnamed_addr #0 align 2 {
entry:
  %fStartTimes = getelementptr inbounds i8, ptr %this, i64 88
  %0 = load ptr, ptr %fStartTimes, align 8
  %cmp.not = icmp eq ptr %0, null
  %fLocalStartTimes = getelementptr inbounds i8, ptr %this, i64 96
  %cmp3.not = icmp eq ptr %0, %fLocalStartTimes
  %or.cond = select i1 %cmp.not, i1 true, i1 %cmp3.not
  br i1 %or.cond, label %if.end, label %if.then

if.then:                                          ; preds = %entry
  tail call void @uprv_free_75(ptr noundef nonnull %0)
  br label %if.end

if.end:                                           ; preds = %if.then, %entry
  %cmp5 = icmp sgt i32 %size, 32
  br i1 %cmp5, label %if.then6, label %if.else

if.then6:                                         ; preds = %if.end
  %conv = zext nneg i32 %size to i64
  %mul = shl nuw nsw i64 %conv, 3
  %call = tail call noalias ptr @uprv_malloc_75(i64 noundef %mul) #18
  store ptr %call, ptr %fStartTimes, align 8
  %cmp9 = icmp eq ptr %call, null
  br i1 %cmp9, label %if.then10, label %do.body

if.then10:                                        ; preds = %if.then6
  store i32 7, ptr %status, align 4
  %fNumStartTimes = getelementptr inbounds i8, ptr %this, i64 84
  br label %return.sink.split

if.else:                                          ; preds = %if.end
  store ptr %fLocalStartTimes, ptr %fStartTimes, align 8
  br label %do.body

do.body:                                          ; preds = %if.else, %if.then6
  %1 = phi ptr [ %fLocalStartTimes, %if.else ], [ %call, %if.then6 ]
  %conv17 = sext i32 %size to i64
  %mul18 = shl nsw i64 %conv17, 3
  tail call void @llvm.memcpy.p0.p0.i64(ptr nonnull align 8 %1, ptr align 8 %source, i64 %mul18, i1 false)
  %fNumStartTimes19 = getelementptr inbounds i8, ptr %this, i64 84
  store i32 %size, ptr %fNumStartTimes19, align 4
  tail call void @uprv_sortArray_75(ptr noundef nonnull %1, i32 noundef %size, i32 noundef 8, ptr noundef nonnull @_ZL12compareDatesPKvS0_S0_, ptr noundef null, i8 noundef signext 1, ptr noundef nonnull %status)
  %2 = load i32, ptr %status, align 4
  %cmp.i = icmp slt i32 %2, 1
  br i1 %cmp.i, label %return, label %if.then23

if.then23:                                        ; preds = %do.body
  %3 = load ptr, ptr %fStartTimes, align 8
  %cmp25.not = icmp eq ptr %3, null
  %cmp30.not = icmp eq ptr %3, %fLocalStartTimes
  %or.cond7 = select i1 %cmp25.not, i1 true, i1 %cmp30.not
  br i1 %or.cond7, label %return.sink.split, label %if.then31

if.then31:                                        ; preds = %if.then23
  tail call void @uprv_free_75(ptr noundef nonnull %3)
  br label %return.sink.split

return.sink.split:                                ; preds = %if.then23, %if.then31, %if.then10
  %fNumStartTimes19.sink = phi ptr [ %fNumStartTimes, %if.then10 ], [ %fNumStartTimes19, %if.then31 ], [ %fNumStartTimes19, %if.then23 ]
  store i32 0, ptr %fNumStartTimes19.sink, align 4
  br label %return

return:                                           ; preds = %return.sink.split, %do.body
  %retval.0 = phi i8 [ 1, %do.body ], [ 0, %return.sink.split ]
  ret i8 %retval.0
}